target datalayout = "e-m:e-p270:32:32-p271:32:32-p272:64:64-i64:64-i128:128-f80:128-n8:16:32:64-S128"
target triple = "x86_64-pc-linux-gnu"

; Function Attrs: nounwind uwtable
define internal void @ApplyAlphaMultiply_C(ptr noundef %0, i32 noundef %1, i32 noundef %2, i32 noundef %3, i32 noundef %4) #0 {
  %6 = alloca ptr, align 8
  %7 = alloca i32, align 4
  %8 = alloca i32, align 4
  %9 = alloca i32, align 4
  %10 = alloca i32, align 4
  %11 = alloca ptr, align 8
  %12 = alloca ptr, align 8
  %13 = alloca i32, align 4
  %14 = alloca i32, align 4
  %15 = alloca i32, align 4
  store ptr %0, ptr %6, align 8, !tbaa !13
  store i32 %1, ptr %7, align 4, !tbaa !8
  store i32 %2, ptr %8, align 4, !tbaa !8
  store i32 %3, ptr %9, align 4, !tbaa !8
  store i32 %4, ptr %10, align 4, !tbaa !8
  br label %16

16:                                               ; preds = %108, %5
  %17 = load i32, ptr %9, align 4, !tbaa !8
  %18 = add nsw i32 %17, -1
  store i32 %18, ptr %9, align 4, !tbaa !8
  %19 = icmp sgt i32 %17, 0
  br i1 %19, label %20, label %113

20:                                               ; preds = %16
  call void @llvm.lifetime.start.p0(i64 8, ptr %11) #5
  %21 = load ptr, ptr %6, align 8, !tbaa !13
  %22 = load i32, ptr %7, align 4, !tbaa !8
  %23 = icmp ne i32 %22, 0
  %24 = select i1 %23, i32 1, i32 0
  %25 = sext i32 %24 to i64
  %26 = getelementptr inbounds i8, ptr %21, i64 %25
  store ptr %26, ptr %11, align 8, !tbaa !13
  call void @llvm.lifetime.start.p0(i64 8, ptr %12) #5
  %27 = load ptr, ptr %6, align 8, !tbaa !13
  %28 = load i32, ptr %7, align 4, !tbaa !8
  %29 = icmp ne i32 %28, 0
  %30 = select i1 %29, i32 0, i32 3
  %31 = sext i32 %30 to i64
  %32 = getelementptr inbounds i8, ptr %27, i64 %31
  store ptr %32, ptr %12, align 8, !tbaa !13
  call void @llvm.lifetime.start.p0(i64 4, ptr %13) #5
  store i32 0, ptr %13, align 4, !tbaa !8
  br label %33

33:                                               ; preds = %105, %20
  %34 = load i32, ptr %13, align 4, !tbaa !8
  %35 = load i32, ptr %8, align 4, !tbaa !8
  %36 = icmp slt i32 %34, %35
  br i1 %36, label %37, label %108

37:                                               ; preds = %33
  call void @llvm.lifetime.start.p0(i64 4, ptr %14) #5
  %38 = load ptr, ptr %12, align 8, !tbaa !13
  %39 = load i32, ptr %13, align 4, !tbaa !8
  %40 = mul nsw i32 4, %39
  %41 = sext i32 %40 to i64
  %42 = getelementptr inbounds i8, ptr %38, i64 %41
  %43 = load i8, ptr %42, align 1, !tbaa !12
  %44 = zext i8 %43 to i32
  store i32 %44, ptr %14, align 4, !tbaa !8
  %45 = load i32, ptr %14, align 4, !tbaa !8
  %46 = icmp ne i32 %45, 255
  br i1 %46, label %47, label %104

47:                                               ; preds = %37
  call void @llvm.lifetime.start.p0(i64 4, ptr %15) #5
  %48 = load i32, ptr %14, align 4, !tbaa !8
  %49 = mul i32 %48, 32897
  store i32 %49, ptr %15, align 4, !tbaa !8
  %50 = load ptr, ptr %11, align 8, !tbaa !13
  %51 = load i32, ptr %13, align 4, !tbaa !8
  %52 = mul nsw i32 4, %51
  %53 = add nsw i32 %52, 0
  %54 = sext i32 %53 to i64
  %55 = getelementptr inbounds i8, ptr %50, i64 %54
  %56 = load i8, ptr %55, align 1, !tbaa !12
  %57 = zext i8 %56 to i32
  %58 = load i32, ptr %15, align 4, !tbaa !8
  %59 = mul i32 %57, %58
  %60 = lshr i32 %59, 23
  %61 = trunc i32 %60 to i8
  %62 = load ptr, ptr %11, align 8, !tbaa !13
  %63 = load i32, ptr %13, align 4, !tbaa !8
  %64 = mul nsw i32 4, %63
  %65 = add nsw i32 %64, 0
  %66 = sext i32 %65 to i64
  %67 = getelementptr inbounds i8, ptr %62, i64 %66
  store i8 %61, ptr %67, align 1, !tbaa !12
  %68 = load ptr, ptr %11, align 8, !tbaa !13
  %69 = load i32, ptr %13, align 4, !tbaa !8
  %70 = mul nsw i32 4, %69
  %71 = add nsw i32 %70, 1
  %72 = sext i32 %71 to i64
  %73 = getelementptr inbounds i8, ptr %68, i64 %72
  %74 = load i8, ptr %73, align 1, !tbaa !12
  %75 = zext i8 %74 to i32
  %76 = load i32, ptr %15, align 4, !tbaa !8
  %77 = mul i32 %75, %76
  %78 = lshr i32 %77, 23
  %79 = trunc i32 %78 to i8
  %80 = load ptr, ptr %11, align 8, !tbaa !13
  %81 = load i32, ptr %13, align 4, !tbaa !8
  %82 = mul nsw i32 4, %81
  %83 = add nsw i32 %82, 1
  %84 = sext i32 %83 to i64
  %85 = getelementptr inbounds i8, ptr %80, i64 %84
  store i8 %79, ptr %85, align 1, !tbaa !12
  %86 = load ptr, ptr %11, align 8, !tbaa !13
  %87 = load i32, ptr %13, align 4, !tbaa !8
  %88 = mul nsw i32 4, %87
  %89 = add nsw i32 %88, 2
  %90 = sext i32 %89 to i64
  %91 = getelementptr inbounds i8, ptr %86, i64 %90
  %92 = load i8, ptr %91, align 1, !tbaa !12
  %93 = zext i8 %92 to i32
  %94 = load i32, ptr %15, align 4, !tbaa !8
  %95 = mul i32 %93, %94
  %96 = lshr i32 %95, 23
  %97 = trunc i32 %96 to i8
  %98 = load ptr, ptr %11, align 8, !tbaa !13
  %99 = load i32, ptr %13, align 4, !tbaa !8
  %100 = mul nsw i32 4, %99
  %101 = add nsw i32 %100, 2
  %102 = sext i32 %101 to i64
  %103 = getelementptr inbounds i8, ptr %98, i64 %102
  store i8 %97, ptr %103, align 1, !tbaa !12
  call void @llvm.lifetime.end.p0(i64 4, ptr %15) #5
  br label %104

104:                                              ; preds = %47, %37
  call void @llvm.lifetime.end.p0(i64 4, ptr %14) #5
  br label %105

105:                                              ; preds = %104
  %106 = load i32, ptr %13, align 4, !tbaa !8
  %107 = add nsw i32 %106, 1
  store i32 %107, ptr %13, align 4, !tbaa !8
  br label %33, !llvm.loop !20

108:                                              ; preds = %33
  %109 = load i32, ptr %10, align 4, !tbaa !8
  %110 = load ptr, ptr %6, align 8, !tbaa !13
  %111 = sext i32 %109 to i64
  %112 = getelementptr inbounds i8, ptr %110, i64 %111
  store ptr %112, ptr %6, align 8, !tbaa !13
  call void @llvm.lifetime.end.p0(i64 4, ptr %13) #5
  call void @llvm.lifetime.end.p0(i64 8, ptr %12) #5
  call void @llvm.lifetime.end.p0(i64 8, ptr %11) #5
  br label %16, !llvm.loop !21

113:                                              ; preds = %16
  ret void
}