; Function Attrs: nofree norecurse nosync nounwind memory(argmem: readwrite) uwtable
define internal void @ApplyAlphaMultiply_C(ptr noundef captures(none) %0, i32 noundef %1, i32 noundef %2, i32 noundef %3, i32 noundef %4) #0 {
  %6 = icmp sgt i32 %3, 0
  br i1 %6, label %.lr.ph35, label %._crit_edge36

.lr.ph35:                                         ; preds = %5
  %.not = icmp ne i32 %1, 0
  %7 = zext i1 %.not to i64
  %8 = select i1 %.not, i64 0, i64 3
  %9 = icmp sgt i32 %2, 0
  %10 = sext i32 %4 to i64
  br i1 %9, label %.lr.ph.us.preheader, label %._crit_edge36

.lr.ph.us.preheader:                              ; preds = %.lr.ph35
  %wide.trip.count = zext nneg i32 %2 to i64
  br label %.lr.ph.us

.lr.ph.us:                                        ; preds = %.lr.ph.us.preheader, %._crit_edge.us
  %.in = phi i32 [ %11, %._crit_edge.us ], [ %3, %.lr.ph.us.preheader ]
  %.033.us = phi ptr [ %42, %._crit_edge.us ], [ %0, %.lr.ph.us.preheader ]
  %11 = add nsw i32 %.in, -1
  %12 = getelementptr inbounds nuw i8, ptr %.033.us, i64 %7
  %13 = getelementptr inbounds nuw i8, ptr %.033.us, i64 %8
  br label %14

14:                                               ; preds = %.lr.ph.us, %41
  %indvars.iv = phi i64 [ 0, %.lr.ph.us ], [ %indvars.iv.next, %41 ]
  %15 = shl nsw i64 %indvars.iv, 2
  %16 = getelementptr inbounds nuw i8, ptr %13, i64 %15
  %17 = load i8, ptr %16, align 1, !tbaa !9
  %.not31.us = icmp eq i8 %17, -1
  br i1 %.not31.us, label %41, label %18

18:                                               ; preds = %14
  %19 = zext i8 %17 to i32
  %20 = mul nuw nsw i32 %19, 32897
  %21 = getelementptr inbounds nuw i8, ptr %12, i64 %15
  %22 = load i8, ptr %21, align 1, !tbaa !9
  %23 = zext i8 %22 to i32
  %24 = mul nuw nsw i32 %20, %23
  %25 = lshr i32 %24, 23
  %26 = trunc nuw i32 %25 to i8
  store i8 %26, ptr %21, align 1, !tbaa !9
  %27 = or disjoint i64 %15, 1
  %28 = getelementptr inbounds nuw i8, ptr %12, i64 %27
  %29 = load i8, ptr %28, align 1, !tbaa !9
  %30 = zext i8 %29 to i32
  %31 = mul nuw nsw i32 %20, %30
  %32 = lshr i32 %31, 23
  %33 = trunc nuw i32 %32 to i8
  store i8 %33, ptr %28, align 1, !tbaa !9
  %34 = or disjoint i64 %15, 2
  %35 = getelementptr inbounds nuw i8, ptr %12, i64 %34
  %36 = load i8, ptr %35, align 1, !tbaa !9
  %37 = zext i8 %36 to i32
  %38 = mul nuw nsw i32 %20, %37
  %39 = lshr i32 %38, 23
  %40 = trunc nuw i32 %39 to i8
  store i8 %40, ptr %35, align 1, !tbaa !9
  br label %41

41:                                               ; preds = %18, %14
  %indvars.iv.next = add nuw nsw i64 %indvars.iv, 1
  %exitcond.not = icmp eq i64 %indvars.iv.next, %wide.trip.count
  br i1 %exitcond.not, label %._crit_edge.us, label %14, !llvm.loop !18

._crit_edge.us:                                   ; preds = %41
  %42 = getelementptr inbounds i8, ptr %.033.us, i64 %10
  %43 = icmp sgt i32 %.in, 1
  br i1 %43, label %.lr.ph.us, label %._crit_edge36, !llvm.loop !19

._crit_edge36:                                    ; preds = %._crit_edge.us, %.lr.ph35, %5
  ret void
}